; Function Attrs: mustprogress uwtable
define noundef ptr @_ZN4base19PersistentSampleMap21GetSampleCountStorageEi(ptr noundef nonnull align 8 dereferenceable(104) %0, i32 noundef %1) local_unnamed_addr #0 align 2 {
  %3 = getelementptr inbounds nuw i8, ptr %0, i64 56
  %4 = load ptr, ptr %3, align 8, !tbaa !14
  %5 = getelementptr inbounds nuw i8, ptr %0, i64 48
  %.not10.i.i.i = icmp eq ptr %4, null
  br i1 %.not10.i.i.i, label %_ZNSt3mapIiPiSt4lessIiESaISt4pairIKiS0_EEE4findERS4_.exit.thread, label %.lr.ph.i.i.i

.lr.ph.i.i.i:                                     ; preds = %2, %.lr.ph.i.i.i
  %.012.i.i.i = phi ptr [ %.1.i.i.i, %.lr.ph.i.i.i ], [ %4, %2 ]
  %.0811.i.i.i = phi ptr [ %.19.i.i.i, %.lr.ph.i.i.i ], [ %5, %2 ]
  %6 = getelementptr inbounds nuw i8, ptr %.012.i.i.i, i64 32
  %7 = load i32, ptr %6, align 4, !tbaa !32
  %8 = icmp slt i32 %7, %1
  %.19.i.i.i = select i1 %8, ptr %.0811.i.i.i, ptr %.012.i.i.i
  %.1.in.v.i.i.i = select i1 %8, i64 24, i64 16
  %.1.in.i.i.i = getelementptr inbounds nuw i8, ptr %.012.i.i.i, i64 %.1.in.v.i.i.i
  %.1.i.i.i = load ptr, ptr %.1.in.i.i.i, align 8, !tbaa !33
  %.not.i.i.i = icmp eq ptr %.1.i.i.i, null
  br i1 %.not.i.i.i, label %_ZNSt8_Rb_treeIiSt4pairIKiPiESt10_Select1stIS3_ESt4lessIiESaIS3_EE14_M_lower_boundEPSt13_Rb_tree_nodeIS3_EPSt18_Rb_tree_node_baseRS1_.exit.i.i, label %.lr.ph.i.i.i, !llvm.loop !34

_ZNSt8_Rb_treeIiSt4pairIKiPiESt10_Select1stIS3_ESt4lessIiESaIS3_EE14_M_lower_boundEPSt13_Rb_tree_nodeIS3_EPSt18_Rb_tree_node_baseRS1_.exit.i.i: ; preds = %.lr.ph.i.i.i
  %9 = icmp eq ptr %.19.i.i.i, %5
  br i1 %9, label %_ZNSt3mapIiPiSt4lessIiESaISt4pairIKiS0_EEE4findERS4_.exit.thread, label %_ZNSt3mapIiPiSt4lessIiESaISt4pairIKiS0_EEE4findERS4_.exit

_ZNSt3mapIiPiSt4lessIiESaISt4pairIKiS0_EEE4findERS4_.exit: ; preds = %_ZNSt8_Rb_treeIiSt4pairIKiPiESt10_Select1stIS3_ESt4lessIiESaIS3_EE14_M_lower_boundEPSt13_Rb_tree_nodeIS3_EPSt18_Rb_tree_node_baseRS1_.exit.i.i
  %10 = getelementptr inbounds nuw i8, ptr %.19.i.i.i, i64 32
  %11 = load i32, ptr %10, align 4, !tbaa !32
  %12 = icmp slt i32 %1, %11
  br i1 %12, label %_ZNSt3mapIiPiSt4lessIiESaISt4pairIKiS0_EEE4findERS4_.exit.thread, label %13

13:                                               ; preds = %_ZNSt3mapIiPiSt4lessIiESaISt4pairIKiS0_EEE4findERS4_.exit
  %14 = getelementptr inbounds nuw i8, ptr %.19.i.i.i, i64 40
  %15 = load ptr, ptr %14, align 8, !tbaa !36
  br label %17

_ZNSt3mapIiPiSt4lessIiESaISt4pairIKiS0_EEE4findERS4_.exit.thread: ; preds = %2, %_ZNSt8_Rb_treeIiSt4pairIKiPiESt10_Select1stIS3_ESt4lessIiESaIS3_EE14_M_lower_boundEPSt13_Rb_tree_nodeIS3_EPSt18_Rb_tree_node_baseRS1_.exit.i.i, %_ZNSt3mapIiPiSt4lessIiESaISt4pairIKiS0_EEE4findERS4_.exit
  %16 = tail call noundef ptr @_ZN4base19PersistentSampleMap13ImportSamplesEib(ptr noundef nonnull align 8 dereferenceable(104) %0, i32 noundef %1, i1 noundef zeroext false)
  br label %17

17:                                               ; preds = %_ZNSt3mapIiPiSt4lessIiESaISt4pairIKiS0_EEE4findERS4_.exit.thread, %13
  %.0 = phi ptr [ %15, %13 ], [ %16, %_ZNSt3mapIiPiSt4lessIiESaISt4pairIKiS0_EEE4findERS4_.exit.thread ]
  ret ptr %.0
}